; Function Attrs: nounwind uwtable
define range(i32 -29, 1) i32 @pmix20_bfrop_pack_status(ptr noundef readnone captures(none) %0, ptr noundef %1, ptr noundef readonly captures(none) %2, i32 noundef %3, i16 noundef zeroext %4) local_unnamed_addr #0 {
  %6 = icmp sgt i32 %3, 0
  br i1 %6, label %.lr.ph, label %pmix20_bfrop_pack_int32.exit

.lr.ph:                                           ; preds = %5
  %7 = getelementptr inbounds nuw i8, ptr %1, i64 136
  %8 = getelementptr inbounds nuw i8, ptr %1, i64 160
  %wide.trip.count = zext nneg i32 %3 to i64
  br label %9

9:                                                ; preds = %.lr.ph, %.lr.ph.i.preheader
  %indvars.iv = phi i64 [ 0, %.lr.ph ], [ %indvars.iv.next, %.lr.ph.i.preheader ]
  %10 = getelementptr inbounds nuw i32, ptr %2, i64 %indvars.iv
  %11 = load i32, ptr %10, align 4, !tbaa !34
  %12 = load i32, ptr getelementptr inbounds nuw (i8, ptr @pmix_bfrops_base_framework, i64 76), align 4, !tbaa !14
  %or.cond.i = icmp ult i32 %12, 64
  br i1 %or.cond.i, label %13, label %19

13:                                               ; preds = %9
  %14 = zext nneg i32 %12 to i64
  %15 = getelementptr inbounds nuw [0 x %struct.pmix_output_desc_t], ptr @pmix_output_info, i64 0, i64 %14, i32 2
  %16 = load i32, ptr %15, align 4, !tbaa !20
  %17 = icmp sgt i32 %16, 19
  br i1 %17, label %18, label %19

18:                                               ; preds = %13
  tail call void (i32, ptr, ...) @pmix_output(i32 noundef %12, ptr noundef nonnull @.str.4, i32 noundef 1) #8
  br label %19

19:                                               ; preds = %18, %13, %9
  %20 = tail call ptr @pmix_bfrop_buffer_extend(ptr noundef %1, i64 noundef 4) #8
  %21 = icmp eq ptr %20, null
  br i1 %21, label %pmix20_bfrop_pack_int32.exit, label %.lr.ph.i.preheader

.lr.ph.i.preheader:                               ; preds = %19
  %22 = tail call noundef i32 @llvm.bswap.i32(i32 %11)
  store i32 %22, ptr %20, align 1
  %23 = load ptr, ptr %7, align 8, !tbaa !23
  %24 = getelementptr inbounds nuw i8, ptr %23, i64 4
  store ptr %24, ptr %7, align 8, !tbaa !23
  %25 = load i64, ptr %8, align 8, !tbaa !24
  %26 = add i64 %25, 4
  store i64 %26, ptr %8, align 8, !tbaa !24
  %indvars.iv.next = add nuw nsw i64 %indvars.iv, 1
  %exitcond.not = icmp eq i64 %indvars.iv.next, %wide.trip.count
  br i1 %exitcond.not, label %pmix20_bfrop_pack_int32.exit, label %9, !llvm.loop !59

pmix20_bfrop_pack_int32.exit:                     ; preds = %.lr.ph.i.preheader, %19, %5
  %.0 = phi i32 [ 0, %5 ], [ -29, %19 ], [ 0, %.lr.ph.i.preheader ]
  ret i32 %.0
}